target datalayout = "e-m:e-p270:32:32-p271:32:32-p272:64:64-i64:64-i128:128-f80:128-n8:16:32:64-S128"
target triple = "x86_64-pc-linux-gnu"

@.str = private unnamed_addr constant [7 x i8] c"\\x%02x\00", align 1

; Function Attrs: nounwind uwtable
define dso_local zeroext i1 @pg_str_endswith(ptr noundef %0, ptr noundef %1) #0 {
  %3 = alloca i1, align 1
  %4 = alloca ptr, align 8
  %5 = alloca ptr, align 8
  %6 = alloca i64, align 8
  %7 = alloca i64, align 8
  %8 = alloca i32, align 4
  store ptr %0, ptr %4, align 8
  store ptr %1, ptr %5, align 8
  call void @llvm.lifetime.start.p0(i64 8, ptr %6) #6
  %9 = load ptr, ptr %4, align 8
  %10 = call i64 @strlen(ptr noundef %9) #7
  store i64 %10, ptr %6, align 8
  call void @llvm.lifetime.start.p0(i64 8, ptr %7) #6
  %11 = load ptr, ptr %5, align 8
  %12 = call i64 @strlen(ptr noundef %11) #7
  store i64 %12, ptr %7, align 8
  %13 = load i64, ptr %7, align 8
  %14 = load i64, ptr %6, align 8
  %15 = icmp ugt i64 %13, %14
  br i1 %15, label %16, label %17

16:                                               ; preds = %2
  store i1 false, ptr %3, align 1
  store i32 1, ptr %8, align 4
  br label %27

17:                                               ; preds = %2
  %18 = load i64, ptr %6, align 8
  %19 = load i64, ptr %7, align 8
  %20 = sub i64 %18, %19
  %21 = load ptr, ptr %4, align 8
  %22 = getelementptr inbounds nuw i8, ptr %21, i64 %20
  store ptr %22, ptr %4, align 8
  %23 = load ptr, ptr %4, align 8
  %24 = load ptr, ptr %5, align 8
  %25 = call i32 @strcmp(ptr noundef %23, ptr noundef %24) #7
  %26 = icmp eq i32 %25, 0
  store i1 %26, ptr %3, align 1
  store i32 1, ptr %8, align 4
  br label %27

27:                                               ; preds = %17, %16
  call void @llvm.lifetime.end.p0(i64 8, ptr %7) #6
  call void @llvm.lifetime.end.p0(i64 8, ptr %6) #6
  %28 = load i1, ptr %3, align 1
  ret i1 %28
}

; Function Attrs: nocallback nofree nosync nounwind willreturn memory(argmem: readwrite)
declare void @llvm.lifetime.start.p0(i64 immarg, ptr captures(none)) #1

; Function Attrs: nounwind willreturn memory(read)
declare i64 @strlen(ptr noundef) #2

; Function Attrs: nounwind willreturn memory(read)
declare i32 @strcmp(ptr noundef, ptr noundef) #2

; Function Attrs: nocallback nofree nosync nounwind willreturn memory(argmem: readwrite)
declare void @llvm.lifetime.end.p0(i64 immarg, ptr captures(none)) #1

; Function Attrs: nounwind uwtable
define dso_local i32 @strtoint(ptr noalias noundef %0, ptr noalias noundef %1, i32 noundef %2) #0 {
  %4 = alloca ptr, align 8
  %5 = alloca ptr, align 8
  %6 = alloca i32, align 4
  %7 = alloca i64, align 8
  store ptr %0, ptr %4, align 8
  store ptr %1, ptr %5, align 8
  store i32 %2, ptr %6, align 4
  call void @llvm.lifetime.start.p0(i64 8, ptr %7) #6
  %8 = load ptr, ptr %4, align 8
  %9 = load ptr, ptr %5, align 8
  %10 = load i32, ptr %6, align 4
  %11 = call i64 @strtol(ptr noundef %8, ptr noundef %9, i32 noundef %10) #6
  store i64 %11, ptr %7, align 8
  %12 = load i64, ptr %7, align 8
  %13 = load i64, ptr %7, align 8
  %14 = trunc i64 %13 to i32
  %15 = sext i32 %14 to i64
  %16 = icmp ne i64 %12, %15
  br i1 %16, label %17, label %19

17:                                               ; preds = %3
  %18 = call ptr @__errno_location() #8
  store i32 34, ptr %18, align 4
  br label %19

19:                                               ; preds = %17, %3
  %20 = load i64, ptr %7, align 8
  %21 = trunc i64 %20 to i32
  call void @llvm.lifetime.end.p0(i64 8, ptr %7) #6
  ret i32 %21
}

; Function Attrs: nounwind
declare i64 @strtol(ptr noundef, ptr noundef, i32 noundef) #3

; Function Attrs: nounwind willreturn memory(none)
declare ptr @__errno_location() #4

; Function Attrs: nounwind uwtable
define dso_local ptr @pg_clean_ascii(ptr noundef %0, i32 noundef %1) #0 {
  %3 = alloca ptr, align 8
  %4 = alloca ptr, align 8
  %5 = alloca i32, align 4
  %6 = alloca i64, align 8
  %7 = alloca ptr, align 8
  %8 = alloca ptr, align 8
  %9 = alloca i64, align 8
  %10 = alloca i32, align 4
  store ptr %0, ptr %4, align 8
  store i32 %1, ptr %5, align 4
  call void @llvm.lifetime.start.p0(i64 8, ptr %6) #6
  call void @llvm.lifetime.start.p0(i64 8, ptr %7) #6
  call void @llvm.lifetime.start.p0(i64 8, ptr %8) #6
  call void @llvm.lifetime.start.p0(i64 8, ptr %9) #6
  store i64 0, ptr %9, align 8
  %11 = load ptr, ptr %4, align 8
  %12 = call i64 @strlen(ptr noundef %11) #7
  %13 = mul i64 %12, 4
  %14 = add i64 %13, 1
  store i64 %14, ptr %6, align 8
  %15 = load i64, ptr %6, align 8
  %16 = load i32, ptr %5, align 4
  %17 = call ptr @palloc_extended(i64 noundef %15, i32 noundef %16)
  store ptr %17, ptr %7, align 8
  %18 = load ptr, ptr %7, align 8
  %19 = icmp ne ptr %18, null
  br i1 %19, label %21, label %20

20:                                               ; preds = %2
  store ptr null, ptr %3, align 8
  store i32 1, ptr %10, align 4
  br label %68

21:                                               ; preds = %2
  %22 = load ptr, ptr %4, align 8
  store ptr %22, ptr %8, align 8
  br label %23

23:                                               ; preds = %60, %21
  %24 = load ptr, ptr %8, align 8
  %25 = load i8, ptr %24, align 1
  %26 = sext i8 %25 to i32
  %27 = icmp ne i32 %26, 0
  br i1 %27, label %28, label %63

28:                                               ; preds = %23
  %29 = load ptr, ptr %8, align 8
  %30 = load i8, ptr %29, align 1
  %31 = sext i8 %30 to i32
  %32 = icmp slt i32 %31, 32
  br i1 %32, label %38, label %33

33:                                               ; preds = %28
  %34 = load ptr, ptr %8, align 8
  %35 = load i8, ptr %34, align 1
  %36 = sext i8 %35 to i32
  %37 = icmp sgt i32 %36, 126
  br i1 %37, label %38, label %51

38:                                               ; preds = %33, %28
  %39 = load ptr, ptr %7, align 8
  %40 = load i64, ptr %9, align 8
  %41 = getelementptr inbounds nuw i8, ptr %39, i64 %40
  %42 = load i64, ptr %6, align 8
  %43 = load i64, ptr %9, align 8
  %44 = sub i64 %42, %43
  %45 = load ptr, ptr %8, align 8
  %46 = load i8, ptr %45, align 1
  %47 = zext i8 %46 to i32
  %48 = call i32 (ptr, i64, ptr, ...) @pg_snprintf(ptr noundef %41, i64 noundef %44, ptr noundef @.str, i32 noundef %47)
  %49 = load i64, ptr %9, align 8
  %50 = add i64 %49, 4
  store i64 %50, ptr %9, align 8
  br label %59

51:                                               ; preds = %33
  %52 = load ptr, ptr %8, align 8
  %53 = load i8, ptr %52, align 1
  %54 = load ptr, ptr %7, align 8
  %55 = load i64, ptr %9, align 8
  %56 = getelementptr inbounds nuw i8, ptr %54, i64 %55
  store i8 %53, ptr %56, align 1
  %57 = load i64, ptr %9, align 8
  %58 = add i64 %57, 1
  store i64 %58, ptr %9, align 8
  br label %59

59:                                               ; preds = %51, %38
  br label %60

60:                                               ; preds = %59
  %61 = load ptr, ptr %8, align 8
  %62 = getelementptr inbounds nuw i8, ptr %61, i32 1
  store ptr %62, ptr %8, align 8
  br label %23, !llvm.loop !4

63:                                               ; preds = %23
  %64 = load ptr, ptr %7, align 8
  %65 = load i64, ptr %9, align 8
  %66 = getelementptr inbounds nuw i8, ptr %64, i64 %65
  store i8 0, ptr %66, align 1
  %67 = load ptr, ptr %7, align 8
  store ptr %67, ptr %3, align 8
  store i32 1, ptr %10, align 4
  br label %68

68:                                               ; preds = %63, %20
  call void @llvm.lifetime.end.p0(i64 8, ptr %9) #6
  call void @llvm.lifetime.end.p0(i64 8, ptr %8) #6
  call void @llvm.lifetime.end.p0(i64 8, ptr %7) #6
  call void @llvm.lifetime.end.p0(i64 8, ptr %6) #6
  %69 = load ptr, ptr %3, align 8
  ret ptr %69
}

declare ptr @palloc_extended(i64 noundef, i32 noundef) #5

declare i32 @pg_snprintf(ptr noundef, i64 noundef, ptr noundef, ...) #5

; Function Attrs: nounwind uwtable
define dso_local zeroext i1 @pg_is_ascii(ptr noundef %0) #0 {
  %2 = alloca i1, align 1
  %3 = alloca ptr, align 8
  store ptr %0, ptr %3, align 8
  br label %4

4:                                                ; preds = %15, %1
  %5 = load ptr, ptr %3, align 8
  %6 = load i8, ptr %5, align 1
  %7 = icmp ne i8 %6, 0
  br i1 %7, label %8, label %18

8:                                                ; preds = %4
  %9 = load ptr, ptr %3, align 8
  %10 = load i8, ptr %9, align 1
  %11 = zext i8 %10 to i32
  %12 = and i32 %11, 128
  %13 = icmp ne i32 %12, 0
  br i1 %13, label %14, label %15

14:                                               ; preds = %8
  store i1 false, ptr %2, align 1
  br label %19

15:                                               ; preds = %8
  %16 = load ptr, ptr %3, align 8
  %17 = getelementptr inbounds nuw i8, ptr %16, i32 1
  store ptr %17, ptr %3, align 8
  br label %4, !llvm.loop !6

18:                                               ; preds = %4
  store i1 true, ptr %2, align 1
  br label %19

19:                                               ; preds = %18, %14
  %20 = load i1, ptr %2, align 1
  ret i1 %20
}

; Function Attrs: nounwind uwtable
define dso_local i32 @pg_strip_crlf(ptr noundef %0) #0 {
  %2 = alloca ptr, align 8
  %3 = alloca i32, align 4
  store ptr %0, ptr %2, align 8
  call void @llvm.lifetime.start.p0(i64 4, ptr %3) #6
  %4 = load ptr, ptr %2, align 8
  %5 = call i64 @strlen(ptr noundef %4) #7
  %6 = trunc i64 %5 to i32
  store i32 %6, ptr %3, align 4
  br label %7

7:                                                ; preds = %32, %1
  %8 = load i32, ptr %3, align 4
  %9 = icmp sgt i32 %8, 0
  br i1 %9, label %10, label %30

10:                                               ; preds = %7
  %11 = load ptr, ptr %2, align 8
  %12 = load i32, ptr %3, align 4
  %13 = sub i32 %12, 1
  %14 = sext i32 %13 to i64
  %15 = getelementptr inbounds i8, ptr %11, i64 %14
  %16 = load i8, ptr %15, align 1
  %17 = sext i8 %16 to i32
  %18 = icmp eq i32 %17, 10
  br i1 %18, label %28, label %19

19:                                               ; preds = %10
  %20 = load ptr, ptr %2, align 8
  %21 = load i32, ptr %3, align 4
  %22 = sub i32 %21, 1
  %23 = sext i32 %22 to i64
  %24 = getelementptr inbounds i8, ptr %20, i64 %23
  %25 = load i8, ptr %24, align 1
  %26 = sext i8 %25 to i32
  %27 = icmp eq i32 %26, 13
  br label %28

28:                                               ; preds = %19, %10
  %29 = phi i1 [ true, %10 ], [ %27, %19 ]
  br label %30

30:                                               ; preds = %28, %7
  %31 = phi i1 [ false, %7 ], [ %29, %28 ]
  br i1 %31, label %32, label %38

32:                                               ; preds = %30
  %33 = load ptr, ptr %2, align 8
  %34 = load i32, ptr %3, align 4
  %35 = add i32 %34, -1
  store i32 %35, ptr %3, align 4
  %36 = sext i32 %35 to i64
  %37 = getelementptr inbounds i8, ptr %33, i64 %36
  store i8 0, ptr %37, align 1
  br label %7, !llvm.loop !7

38:                                               ; preds = %30
  %39 = load i32, ptr %3, align 4
  call void @llvm.lifetime.end.p0(i64 4, ptr %3) #6
  ret i32 %39
}


!llvm.module.flags = !{!0, !1, !2, !3}

!0 = !{i32 1, !"wchar_size", i32 4}
!1 = !{i32 8, !"PIC Level", i32 2}
!2 = !{i32 7, !"PIE Level", i32 2}
!3 = !{i32 7, !"uwtable", i32 2}
!4 = distinct !{!4, !5}
!5 = !{!"llvm.loop.mustprogress"}
!6 = distinct !{!6, !5}
!7 = distinct !{!7, !5}
